target datalayout = "e-m:e-p270:32:32-p271:32:32-p272:64:64-i64:64-i128:128-f80:128-n8:16:32:64-S128"
target triple = "x86_64-unknown-linux-gnu"

%struct.sockaddr_in = type { i16, i16, %struct.in_addr, [8 x i8] }
%struct.in_addr = type { i32 }
%struct.NetSocketState = type { %struct.NetClientState, i32, i32, %struct.SocketReadState, i32, %struct.sockaddr_in, ptr, i8, i8 }
%struct.NetClientState = type { ptr, i32, %union.anon.1, ptr, ptr, ptr, ptr, [256 x i8], i8, ptr, i32, i8, i32, i32, i8, i8, i8, %union.anon.2 }
%union.anon.1 = type { %struct.QTailQLink }
%struct.QTailQLink = type { ptr, ptr }
%union.anon.2 = type { %struct.QTailQLink }
%struct.SocketReadState = type { i32, i8, i32, i32, i32, [69632 x i8], ptr }
%struct.iovec = type { ptr, i64 }

; Function Attrs: nounwind sspstrong uwtable
define internal void @net_socket_update_fd_handler(ptr noundef %s) #0 {
entry:
  %s.addr = alloca ptr, align 8
  store ptr %s, ptr %s.addr, align 8
  %0 = load ptr, ptr %s.addr, align 8
  %fd = getelementptr inbounds %struct.NetSocketState, ptr %0, i32 0, i32 2
  %1 = load i32, ptr %fd, align 4
  %2 = load ptr, ptr %s.addr, align 8
  %read_poll = getelementptr inbounds %struct.NetSocketState, ptr %2, i32 0, i32 7
  %3 = load i8, ptr %read_poll, align 8
  %tobool = trunc i8 %3 to i1
  br i1 %tobool, label %cond.true, label %cond.false

cond.true:                                        ; preds = %entry
  %4 = load ptr, ptr %s.addr, align 8
  %send_fn = getelementptr inbounds %struct.NetSocketState, ptr %4, i32 0, i32 6
  %5 = load ptr, ptr %send_fn, align 8
  br label %cond.end

cond.false:                                       ; preds = %entry
  br label %cond.end

cond.end:                                         ; preds = %cond.false, %cond.true
  %cond = phi ptr [ %5, %cond.true ], [ null, %cond.false ]
  %6 = load ptr, ptr %s.addr, align 8
  %write_poll = getelementptr inbounds %struct.NetSocketState, ptr %6, i32 0, i32 8
  %7 = load i8, ptr %write_poll, align 1
  %tobool1 = trunc i8 %7 to i1
  %cond2 = select i1 %tobool1, ptr @net_socket_writable, ptr null
  %8 = load ptr, ptr %s.addr, align 8
  call void @qemu_set_fd_handler(i32 noundef %1, ptr noundef %cond, ptr noundef %cond2, ptr noundef %8)
  ret void
}

; Function Attrs: nounwind sspstrong uwtable
define internal void @net_socket_write_poll(ptr noundef %s, i1 noundef zeroext %enable) #0 {
entry:
  %s.addr = alloca ptr, align 8
  %enable.addr = alloca i8, align 1
  store ptr %s, ptr %s.addr, align 8
  %frombool = zext i1 %enable to i8
  store i8 %frombool, ptr %enable.addr, align 1
  %0 = load i8, ptr %enable.addr, align 1
  %tobool = trunc i8 %0 to i1
  %1 = load ptr, ptr %s.addr, align 8
  %write_poll = getelementptr inbounds %struct.NetSocketState, ptr %1, i32 0, i32 8
  %frombool1 = zext i1 %tobool to i8
  store i8 %frombool1, ptr %write_poll, align 1
  %2 = load ptr, ptr %s.addr, align 8
  call void @net_socket_update_fd_handler(ptr noundef %2)
  ret void
}

; Function Attrs: nounwind sspstrong uwtable
define internal i64 @net_socket_receive(ptr noundef %nc, ptr noundef %buf, i64 noundef %size) #0 {
entry:
  %retval = alloca i64, align 8
  %nc.addr = alloca ptr, align 8
  %buf.addr = alloca ptr, align 8
  %size.addr = alloca i64, align 8
  %s = alloca ptr, align 8
  %tmp = alloca ptr, align 8
  %__mptr = alloca ptr, align 8
  %tmp1 = alloca ptr, align 8
  %len = alloca i32, align 4
  %iov = alloca [2 x %struct.iovec], align 16
  %remaining = alloca i64, align 8
  %ret = alloca i64, align 8
  store ptr %nc, ptr %nc.addr, align 8
  store ptr %buf, ptr %buf.addr, align 8
  store i64 %size, ptr %size.addr, align 8
  %0 = load ptr, ptr %nc.addr, align 8
  store ptr %0, ptr %__mptr, align 8
  %1 = load ptr, ptr %__mptr, align 8
  %add.ptr = getelementptr i8, ptr %1, i64 0
  store ptr %add.ptr, ptr %tmp1, align 8
  %2 = load ptr, ptr %tmp1, align 8
  store ptr %2, ptr %tmp, align 8
  %3 = load ptr, ptr %tmp, align 8
  store ptr %3, ptr %s, align 8
  %4 = load i64, ptr %size.addr, align 8
  %conv = trunc i64 %4 to i32
  %call = call i32 @htonl(i32 noundef %conv) #8
  store i32 %call, ptr %len, align 4
  %arrayinit.begin = getelementptr inbounds [2 x %struct.iovec], ptr %iov, i64 0, i64 0
  %iov_base = getelementptr inbounds %struct.iovec, ptr %arrayinit.begin, i32 0, i32 0
  store ptr %len, ptr %iov_base, align 16
  %iov_len = getelementptr inbounds %struct.iovec, ptr %arrayinit.begin, i32 0, i32 1
  store i64 4, ptr %iov_len, align 8
  %arrayinit.element = getelementptr inbounds %struct.iovec, ptr %arrayinit.begin, i64 1
  %iov_base2 = getelementptr inbounds %struct.iovec, ptr %arrayinit.element, i32 0, i32 0
  %5 = load ptr, ptr %buf.addr, align 8
  store ptr %5, ptr %iov_base2, align 16
  %iov_len3 = getelementptr inbounds %struct.iovec, ptr %arrayinit.element, i32 0, i32 1
  %6 = load i64, ptr %size.addr, align 8
  store i64 %6, ptr %iov_len3, align 8
  %arraydecay = getelementptr inbounds [2 x %struct.iovec], ptr %iov, i64 0, i64 0
  %call4 = call i64 @iov_size(ptr noundef %arraydecay, i32 noundef 2)
  %7 = load ptr, ptr %s, align 8
  %send_index = getelementptr inbounds %struct.NetSocketState, ptr %7, i32 0, i32 4
  %8 = load i32, ptr %send_index, align 8
  %conv5 = zext i32 %8 to i64
  %sub = sub i64 %call4, %conv5
  store i64 %sub, ptr %remaining, align 8
  %9 = load ptr, ptr %s, align 8
  %fd = getelementptr inbounds %struct.NetSocketState, ptr %9, i32 0, i32 2
  %10 = load i32, ptr %fd, align 4
  %arraydecay6 = getelementptr inbounds [2 x %struct.iovec], ptr %iov, i64 0, i64 0
  %11 = load ptr, ptr %s, align 8
  %send_index7 = getelementptr inbounds %struct.NetSocketState, ptr %11, i32 0, i32 4
  %12 = load i32, ptr %send_index7, align 8
  %conv8 = zext i32 %12 to i64
  %13 = load i64, ptr %remaining, align 8
  %call9 = call i64 @iov_send_recv(i32 noundef %10, ptr noundef %arraydecay6, i32 noundef 2, i64 noundef %conv8, i64 noundef %13, i1 noundef zeroext true)
  store i64 %call9, ptr %ret, align 8
  %14 = load i64, ptr %ret, align 8
  %cmp = icmp eq i64 %14, -1
  br i1 %cmp, label %land.lhs.true, label %if.end

land.lhs.true:                                    ; preds = %entry
  %call11 = call ptr @__errno_location() #8
  %15 = load i32, ptr %call11, align 4
  %cmp12 = icmp eq i32 %15, 11
  br i1 %cmp12, label %if.then, label %if.end

if.then:                                          ; preds = %land.lhs.true
  store i64 0, ptr %ret, align 8
  br label %if.end

if.end:                                           ; preds = %if.then, %land.lhs.true, %entry
  %16 = load i64, ptr %ret, align 8
  %cmp14 = icmp eq i64 %16, -1
  br i1 %cmp14, label %if.then16, label %if.end21

if.then16:                                        ; preds = %if.end
  %17 = load ptr, ptr %s, align 8
  %send_index17 = getelementptr inbounds %struct.NetSocketState, ptr %17, i32 0, i32 4
  store i32 0, ptr %send_index17, align 8
  %call18 = call ptr @__errno_location() #8
  %18 = load i32, ptr %call18, align 4
  %sub19 = sub i32 0, %18
  %conv20 = sext i32 %sub19 to i64
  store i64 %conv20, ptr %retval, align 8
  br label %return

if.end21:                                         ; preds = %if.end
  %19 = load i64, ptr %ret, align 8
  %20 = load i64, ptr %remaining, align 8
  %cmp22 = icmp slt i64 %19, %20
  br i1 %cmp22, label %if.then24, label %if.end28

if.then24:                                        ; preds = %if.end21
  %21 = load i64, ptr %ret, align 8
  %22 = load ptr, ptr %s, align 8
  %send_index25 = getelementptr inbounds %struct.NetSocketState, ptr %22, i32 0, i32 4
  %23 = load i32, ptr %send_index25, align 8
  %conv26 = zext i32 %23 to i64
  %add = add i64 %conv26, %21
  %conv27 = trunc i64 %add to i32
  store i32 %conv27, ptr %send_index25, align 8
  %24 = load ptr, ptr %s, align 8
  call void @net_socket_write_poll(ptr noundef %24, i1 noundef zeroext true)
  store i64 0, ptr %retval, align 8
  br label %return

if.end28:                                         ; preds = %if.end21
  %25 = load ptr, ptr %s, align 8
  %send_index29 = getelementptr inbounds %struct.NetSocketState, ptr %25, i32 0, i32 4
  store i32 0, ptr %send_index29, align 8
  %26 = load i64, ptr %size.addr, align 8
  store i64 %26, ptr %retval, align 8
  br label %return

return:                                           ; preds = %if.end28, %if.then24, %if.then16
  %27 = load i64, ptr %retval, align 8
  ret i64 %27
}