; Function Attrs: nounwind sspstrong uwtable
define internal i64 @net_socket_receive(ptr noundef %nc, ptr noundef %buf, i64 noundef %size) #0 {
entry:
  %len = alloca i32, align 4
  %iov = alloca [2 x %struct.iovec], align 16
  %conv = trunc i64 %size to i32
  %call = tail call i32 @htonl(i32 noundef %conv) #9
  store i32 %call, ptr %len, align 4
  store ptr %len, ptr %iov, align 16
  %iov_len = getelementptr inbounds nuw i8, ptr %iov, i64 8
  store i64 4, ptr %iov_len, align 8
  %arrayinit.element = getelementptr inbounds nuw i8, ptr %iov, i64 16
  store ptr %buf, ptr %arrayinit.element, align 16
  %iov_len3 = getelementptr inbounds nuw i8, ptr %iov, i64 24
  store i64 %size, ptr %iov_len3, align 8
  %call4 = call i64 @iov_size(ptr noundef nonnull %iov, i32 noundef 2) #8
  %send_index = getelementptr inbounds nuw i8, ptr %nc, i64 70048
  %0 = load i32, ptr %send_index, align 8
  %conv5 = zext i32 %0 to i64
  %sub = sub i64 %call4, %conv5
  %fd = getelementptr inbounds nuw i8, ptr %nc, i64 380
  %1 = load i32, ptr %fd, align 4
  %call9 = call i64 @iov_send_recv(i32 noundef %1, ptr noundef nonnull %iov, i32 noundef 2, i64 noundef %conv5, i64 noundef %sub, i1 noundef zeroext true) #8
  %cmp = icmp eq i64 %call9, -1
  br i1 %cmp, label %land.lhs.true, label %if.end21

land.lhs.true:                                    ; preds = %entry
  %call11 = tail call ptr @__errno_location() #9
  %2 = load i32, ptr %call11, align 4
  %cmp12 = icmp eq i32 %2, 11
  br i1 %cmp12, label %if.end21, label %if.then16

if.then16:                                        ; preds = %land.lhs.true
  store i32 0, ptr %send_index, align 8
  %3 = load i32, ptr %call11, align 4
  %sub19 = sub i32 0, %3
  %conv20 = sext i32 %sub19 to i64
  br label %return

if.end21:                                         ; preds = %land.lhs.true, %entry
  %ret.0.ph = phi i64 [ %call9, %entry ], [ 0, %land.lhs.true ]
  %cmp22 = icmp slt i64 %ret.0.ph, %sub
  br i1 %cmp22, label %if.then24, label %if.end28

if.then24:                                        ; preds = %if.end21
  %4 = load i32, ptr %send_index, align 8
  %5 = trunc i64 %ret.0.ph to i32
  %conv27 = add i32 %4, %5
  store i32 %conv27, ptr %send_index, align 8
  %write_poll.i = getelementptr inbounds nuw i8, ptr %nc, i64 70081
  store i8 1, ptr %write_poll.i, align 1
  %6 = load i32, ptr %fd, align 4
  %read_poll.i.i = getelementptr inbounds nuw i8, ptr %nc, i64 70080
  %7 = load i8, ptr %read_poll.i.i, align 8
  %tobool.i.i = trunc i8 %7 to i1
  br i1 %tobool.i.i, label %cond.true.i.i, label %net_socket_write_poll.exit

cond.true.i.i:                                    ; preds = %if.then24
  %send_fn.i.i = getelementptr inbounds nuw i8, ptr %nc, i64 70072
  %8 = load ptr, ptr %send_fn.i.i, align 8
  br label %net_socket_write_poll.exit

net_socket_write_poll.exit:                       ; preds = %if.then24, %cond.true.i.i
  %cond.i.i = phi ptr [ %8, %cond.true.i.i ], [ null, %if.then24 ]
  call void @qemu_set_fd_handler(i32 noundef %6, ptr noundef %cond.i.i, ptr noundef nonnull @net_socket_writable, ptr noundef nonnull %nc) #8
  br label %return

if.end28:                                         ; preds = %if.end21
  store i32 0, ptr %send_index, align 8
  br label %return

return:                                           ; preds = %if.end28, %net_socket_write_poll.exit, %if.then16
  %retval.0 = phi i64 [ %conv20, %if.then16 ], [ 0, %net_socket_write_poll.exit ], [ %size, %if.end28 ]
  ret i64 %retval.0
}